target datalayout = "e-m:e-p270:32:32-p271:32:32-p272:64:64-i64:64-i128:128-f80:128-n8:16:32:64-S128"
target triple = "x86_64-pc-linux-gnu"

%struct.GCRef = type { i64 }
%struct.lua_State = type { %struct.GCRef, i8, i8, i8, i8, %struct.MRef, %struct.GCRef, ptr, ptr, %struct.MRef, %struct.MRef, %struct.GCRef, %struct.GCRef, ptr, i32 }
%struct.MRef = type { i64 }
%union.TValue = type { i64 }

@.str.5 = private unnamed_addr constant [23 x i8] c"copy of dead GC object\00", align 1

; Function Attrs: alwaysinline nounwind uwtable
define internal void @checklivetv(ptr noundef %0, ptr noundef %1, ptr noundef %2) #3 {
  %4 = alloca ptr, align 8
  %5 = alloca ptr, align 8
  %6 = alloca ptr, align 8
  store ptr %0, ptr %4, align 8, !tbaa !18
  store ptr %1, ptr %5, align 8, !tbaa !25
  store ptr %2, ptr %6, align 8, !tbaa !50
  ret void
}

; Function Attrs: alwaysinline nounwind uwtable
define internal void @copyTV(ptr noundef %0, ptr noundef %1, ptr noundef %2) #3 {
  %4 = alloca ptr, align 8
  %5 = alloca ptr, align 8
  %6 = alloca ptr, align 8
  store ptr %0, ptr %4, align 8, !tbaa !18
  store ptr %1, ptr %5, align 8, !tbaa !25
  store ptr %2, ptr %6, align 8, !tbaa !25
  %7 = load ptr, ptr %5, align 8, !tbaa !25
  %8 = load ptr, ptr %6, align 8, !tbaa !25
  call void @llvm.memcpy.p0.p0.i64(ptr align 8 %7, ptr align 8 %8, i64 8, i1 false), !tbaa.struct !78
  %9 = load ptr, ptr %4, align 8, !tbaa !18
  %10 = load ptr, ptr %5, align 8, !tbaa !25
  call void @checklivetv(ptr noundef %9, ptr noundef %10, ptr noundef @.str.5)
  ret void
}

; Function Attrs: noinline nounwind uwtable
define internal void @unwindstack(ptr noundef %0, ptr noundef %1) #4 {
  %3 = alloca ptr, align 8
  %4 = alloca ptr, align 8
  store ptr %0, ptr %3, align 8, !tbaa !18
  store ptr %1, ptr %4, align 8, !tbaa !25
  %5 = load ptr, ptr %3, align 8, !tbaa !18
  %6 = load ptr, ptr %4, align 8, !tbaa !25
  call void @lj_func_closeuv(ptr noundef %5, ptr noundef %6)
  %7 = load ptr, ptr %4, align 8, !tbaa !25
  %8 = load ptr, ptr %3, align 8, !tbaa !18
  %9 = getelementptr inbounds nuw %struct.lua_State, ptr %8, i32 0, i32 8
  %10 = load ptr, ptr %9, align 8, !tbaa !20
  %11 = getelementptr inbounds %union.TValue, ptr %10, i64 -1
  %12 = icmp ult ptr %7, %11
  br i1 %12, label %13, label %24

13:                                               ; preds = %2
  %14 = load ptr, ptr %3, align 8, !tbaa !18
  %15 = load ptr, ptr %4, align 8, !tbaa !25
  %16 = load ptr, ptr %3, align 8, !tbaa !18
  %17 = getelementptr inbounds nuw %struct.lua_State, ptr %16, i32 0, i32 8
  %18 = load ptr, ptr %17, align 8, !tbaa !20
  %19 = getelementptr inbounds %union.TValue, ptr %18, i64 -1
  call void @copyTV(ptr noundef %14, ptr noundef %15, ptr noundef %19)
  %20 = load ptr, ptr %4, align 8, !tbaa !25
  %21 = getelementptr inbounds %union.TValue, ptr %20, i64 1
  %22 = load ptr, ptr %3, align 8, !tbaa !18
  %23 = getelementptr inbounds nuw %struct.lua_State, ptr %22, i32 0, i32 8
  store ptr %21, ptr %23, align 8, !tbaa !20
  br label %24

24:                                               ; preds = %13, %2
  %25 = load ptr, ptr %3, align 8, !tbaa !18
  call void @lj_state_relimitstack(ptr noundef %25)
  ret void
}