; Function Attrs: noinline nounwind uwtable
define internal fastcc void @unwindstack(ptr noundef %0, ptr noundef %1) unnamed_addr #3 {
  tail call void @lj_func_closeuv(ptr noundef %0, ptr noundef %1) #15
  %3 = getelementptr inbounds nuw i8, ptr %0, i64 40
  %4 = load ptr, ptr %3, align 8, !tbaa !20
  %5 = getelementptr inbounds i8, ptr %4, i64 -8
  %6 = icmp ult ptr %1, %5
  br i1 %6, label %7, label %10

7:                                                ; preds = %2
  %8 = load i64, ptr %5, align 8, !tbaa !18
  store i64 %8, ptr %1, align 8, !tbaa !18
  %9 = getelementptr inbounds nuw i8, ptr %1, i64 8
  store ptr %9, ptr %3, align 8, !tbaa !20
  br label %10

10:                                               ; preds = %7, %2
  tail call void @lj_state_relimitstack(ptr noundef nonnull %0) #15
  ret void
}